; Function Attrs: nounwind uwtable
define ptr @l_Lean_Meta_Grind_Arith_CommRing_PolyDerivation_toPreNullCert___lambda__1___boxed(ptr noundef readonly captures(none) %0) local_unnamed_addr #1 {
  %2 = load ptr, ptr %0, align 8, !tbaa !11
  %3 = getelementptr inbounds nuw i8, ptr %0, i64 8
  %4 = load ptr, ptr %3, align 8, !tbaa !11
  %5 = getelementptr inbounds nuw i8, ptr %0, i64 16
  %6 = load ptr, ptr %5, align 8, !tbaa !11
  %7 = getelementptr inbounds nuw i8, ptr %0, i64 24
  %8 = load ptr, ptr %7, align 8, !tbaa !11
  %9 = getelementptr inbounds nuw i8, ptr %0, i64 32
  %10 = load ptr, ptr %9, align 8, !tbaa !11
  %11 = getelementptr inbounds nuw i8, ptr %0, i64 40
  %12 = load ptr, ptr %11, align 8, !tbaa !11
  %13 = getelementptr inbounds nuw i8, ptr %0, i64 48
  %14 = load ptr, ptr %13, align 8, !tbaa !11
  %15 = getelementptr inbounds nuw i8, ptr %0, i64 56
  %16 = load ptr, ptr %15, align 8, !tbaa !11
  %17 = getelementptr inbounds nuw i8, ptr %0, i64 64
  %18 = load ptr, ptr %17, align 8, !tbaa !11
  %19 = getelementptr inbounds nuw i8, ptr %0, i64 72
  %20 = load ptr, ptr %19, align 8, !tbaa !11
  %21 = getelementptr inbounds nuw i8, ptr %0, i64 80
  %22 = load ptr, ptr %21, align 8, !tbaa !11
  %23 = getelementptr inbounds nuw i8, ptr %0, i64 88
  %24 = load ptr, ptr %23, align 8, !tbaa !11
  %25 = getelementptr inbounds nuw i8, ptr %0, i64 96
  %26 = load ptr, ptr %25, align 8, !tbaa !11
  %27 = getelementptr inbounds nuw i8, ptr %0, i64 104
  %28 = load ptr, ptr %27, align 8, !tbaa !11
  %29 = getelementptr inbounds nuw i8, ptr %0, i64 112
  %30 = load ptr, ptr %29, align 8, !tbaa !11
  %31 = getelementptr inbounds nuw i8, ptr %0, i64 120
  %32 = load ptr, ptr %31, align 8, !tbaa !11
  %33 = getelementptr inbounds nuw i8, ptr %0, i64 128
  %34 = load ptr, ptr %33, align 8, !tbaa !11
  %35 = tail call ptr @l_Lean_Meta_Grind_Arith_CommRing_PolyDerivation_toPreNullCert___lambda__1(ptr noundef %2, ptr noundef %4, ptr noundef %6, ptr noundef %8, ptr noundef %10, ptr poison, ptr noundef %14, ptr noundef %16, ptr noundef %18, ptr noundef %20, ptr noundef %22, ptr noundef %24, ptr noundef %26, ptr noundef %28, ptr noundef %30, ptr noundef %32, ptr noundef %34)
  %36 = ptrtoint ptr %14 to i64
  %37 = and i64 %36, 1
  %.not = icmp eq i64 %37, 0
  br i1 %.not, label %38, label %lean_dec.exit41

38:                                               ; preds = %1
  %39 = load i32, ptr %14, align 4, !tbaa !6
  %40 = icmp sgt i32 %39, 1
  br i1 %40, label %41, label %43, !prof !5

41:                                               ; preds = %38
  %42 = add nsw i32 %39, -1
  store i32 %42, ptr %14, align 4, !tbaa !6
  br label %lean_dec.exit41

43:                                               ; preds = %38
  %.not.i = icmp eq i32 %39, 0
  br i1 %.not.i, label %lean_dec.exit41, label %44

44:                                               ; preds = %43
  tail call void @lean_dec_ref_cold(ptr noundef nonnull %14) #6
  br label %lean_dec.exit41

lean_dec.exit41:                                  ; preds = %44, %43, %41, %1
  %45 = ptrtoint ptr %12 to i64
  %46 = and i64 %45, 1
  %.not48 = icmp eq i64 %46, 0
  br i1 %.not48, label %47, label %lean_dec.exit40

47:                                               ; preds = %lean_dec.exit41
  %48 = load i32, ptr %12, align 4, !tbaa !6
  %49 = icmp sgt i32 %48, 1
  br i1 %49, label %50, label %52, !prof !5

50:                                               ; preds = %47
  %51 = add nsw i32 %48, -1
  store i32 %51, ptr %12, align 4, !tbaa !6
  br label %lean_dec.exit40

52:                                               ; preds = %47
  %.not.i42 = icmp eq i32 %48, 0
  br i1 %.not.i42, label %lean_dec.exit40, label %53

53:                                               ; preds = %52
  tail call void @lean_dec_ref_cold(ptr noundef nonnull %12) #6
  br label %lean_dec.exit40

lean_dec.exit40:                                  ; preds = %53, %52, %50, %lean_dec.exit41
  %54 = ptrtoint ptr %8 to i64
  %55 = and i64 %54, 1
  %.not49 = icmp eq i64 %55, 0
  br i1 %.not49, label %56, label %lean_dec.exit39

56:                                               ; preds = %lean_dec.exit40
  %57 = load i32, ptr %8, align 4, !tbaa !6
  %58 = icmp sgt i32 %57, 1
  br i1 %58, label %59, label %61, !prof !5

59:                                               ; preds = %56
  %60 = add nsw i32 %57, -1
  store i32 %60, ptr %8, align 4, !tbaa !6
  br label %lean_dec.exit39

61:                                               ; preds = %56
  %.not.i44 = icmp eq i32 %57, 0
  br i1 %.not.i44, label %lean_dec.exit39, label %62

62:                                               ; preds = %61
  tail call void @lean_dec_ref_cold(ptr noundef nonnull %8) #6
  br label %lean_dec.exit39

lean_dec.exit39:                                  ; preds = %62, %61, %59, %lean_dec.exit40
  %63 = ptrtoint ptr %6 to i64
  %64 = and i64 %63, 1
  %.not50 = icmp eq i64 %64, 0
  br i1 %.not50, label %65, label %lean_dec.exit

65:                                               ; preds = %lean_dec.exit39
  %66 = load i32, ptr %6, align 4, !tbaa !6
  %67 = icmp sgt i32 %66, 1
  br i1 %67, label %68, label %70, !prof !5

68:                                               ; preds = %65
  %69 = add nsw i32 %66, -1
  store i32 %69, ptr %6, align 4, !tbaa !6
  br label %lean_dec.exit

70:                                               ; preds = %65
  %.not.i46 = icmp eq i32 %66, 0
  br i1 %.not.i46, label %lean_dec.exit, label %71

71:                                               ; preds = %70
  tail call void @lean_dec_ref_cold(ptr noundef nonnull %6) #6
  br label %lean_dec.exit

lean_dec.exit:                                    ; preds = %71, %70, %68, %lean_dec.exit39
  ret ptr %35
}